target datalayout = "e-m:e-p270:32:32-p271:32:32-p272:64:64-i64:64-i128:128-f80:128-n8:16:32:64-S128"
target triple = "x86_64-pc-linux-gnu"

%struct.AVComponentDescriptor = type { i32, i32, i32, i32, i32 }
%struct.AVPixFmtDescriptor = type { ptr, i8, i8, i8, i64, [4 x %struct.AVComponentDescriptor], ptr }

; Function Attrs: nounwind uwtable
define ptr @av_pix_fmt_desc_get(i32 noundef %0) #0 {
  %2 = alloca ptr, align 8
  %3 = alloca i32, align 4
  store i32 %0, ptr %3, align 4, !tbaa !15
  %4 = load i32, ptr %3, align 4, !tbaa !15
  %5 = icmp slt i32 %4, 0
  br i1 %5, label %9, label %6

6:                                                ; preds = %1
  %7 = load i32, ptr %3, align 4, !tbaa !15
  %8 = icmp sge i32 %7, 258
  br i1 %8, label %9, label %10

9:                                                ; preds = %6, %1
  store ptr null, ptr %2, align 8
  br label %14

10:                                               ; preds = %6
  %11 = load i32, ptr %3, align 4, !tbaa !15
  %12 = sext i32 %11 to i64
  %13 = getelementptr inbounds [258 x %struct.AVPixFmtDescriptor], ptr @av_pix_fmt_descriptors, i64 0, i64 %12
  store ptr %13, ptr %2, align 8
  br label %14

14:                                               ; preds = %10, %9
  %15 = load ptr, ptr %2, align 8
  ret ptr %15
}

; Function Attrs: nounwind uwtable
define i32 @av_pix_fmt_get_chroma_sub_sample(i32 noundef %0, ptr noundef %1, ptr noundef %2) #0 {
  %4 = alloca i32, align 4
  %5 = alloca i32, align 4
  %6 = alloca ptr, align 8
  %7 = alloca ptr, align 8
  %8 = alloca ptr, align 8
  %9 = alloca i32, align 4
  store i32 %0, ptr %5, align 4, !tbaa !15
  store ptr %1, ptr %6, align 8, !tbaa !11
  store ptr %2, ptr %7, align 8, !tbaa !11
  call void @llvm.lifetime.start.p0(i64 8, ptr %8) #8
  %10 = load i32, ptr %5, align 4, !tbaa !15
  %11 = call ptr @av_pix_fmt_desc_get(i32 noundef %10)
  store ptr %11, ptr %8, align 8, !tbaa !13
  %12 = load ptr, ptr %8, align 8, !tbaa !13
  %13 = icmp ne ptr %12, null
  br i1 %13, label %15, label %14

14:                                               ; preds = %3
  store i32 -38, ptr %4, align 4
  store i32 1, ptr %9, align 4
  br label %26

15:                                               ; preds = %3
  %16 = load ptr, ptr %8, align 8, !tbaa !13
  %17 = getelementptr inbounds nuw %struct.AVPixFmtDescriptor, ptr %16, i32 0, i32 2
  %18 = load i8, ptr %17, align 1, !tbaa !45
  %19 = zext i8 %18 to i32
  %20 = load ptr, ptr %6, align 8, !tbaa !11
  store i32 %19, ptr %20, align 4, !tbaa !15
  %21 = load ptr, ptr %8, align 8, !tbaa !13
  %22 = getelementptr inbounds nuw %struct.AVPixFmtDescriptor, ptr %21, i32 0, i32 3
  %23 = load i8, ptr %22, align 2, !tbaa !46
  %24 = zext i8 %23 to i32
  %25 = load ptr, ptr %7, align 8, !tbaa !11
  store i32 %24, ptr %25, align 4, !tbaa !15
  store i32 0, ptr %4, align 4
  store i32 1, ptr %9, align 4
  br label %26

26:                                               ; preds = %15, %14
  call void @llvm.lifetime.end.p0(i64 8, ptr %8) #8
  %27 = load i32, ptr %4, align 4
  ret i32 %27
}