; Function Attrs: mustprogress nofree norecurse nosync nounwind willreturn memory(argmem: write) uwtable
define range(i32 -38, 1) i32 @av_pix_fmt_get_chroma_sub_sample(i32 noundef %0, ptr noundef writeonly captures(none) %1, ptr noundef writeonly captures(none) %2) local_unnamed_addr #10 {
  %or.cond.i = icmp ugt i32 %0, 257
  br i1 %or.cond.i, label %13, label %4

4:                                                ; preds = %3
  %5 = zext nneg i32 %0 to i64
  %6 = getelementptr inbounds nuw [258 x %struct.AVPixFmtDescriptor], ptr @av_pix_fmt_descriptors, i64 0, i64 %5
  %7 = getelementptr inbounds nuw i8, ptr %6, i64 9
  %8 = load i8, ptr %7, align 1, !tbaa !28
  %9 = zext i8 %8 to i32
  store i32 %9, ptr %1, align 4, !tbaa !4
  %10 = getelementptr inbounds nuw i8, ptr %6, i64 10
  %11 = load i8, ptr %10, align 2, !tbaa !29
  %12 = zext i8 %11 to i32
  store i32 %12, ptr %2, align 4, !tbaa !4
  br label %13

13:                                               ; preds = %3, %4
  %.0 = phi i32 [ 0, %4 ], [ -38, %3 ]
  ret i32 %.0
}